target datalayout = "e-m:e-p270:32:32-p271:32:32-p272:64:64-i64:64-i128:128-f80:128-n8:16:32:64-S128"
target triple = "x86_64-pc-linux-gnu"

%class.check_logic = type { ptr }

; Function Attrs: mustprogress uwtable
define linkonce_odr hidden void @_Z7deallocIN11check_logic3impEEvPT_(ptr noundef %0) #5 comdat {
  %2 = alloca ptr, align 8
  store ptr %0, ptr %2, align 8, !tbaa !11
  %3 = load ptr, ptr %2, align 8, !tbaa !11
  %4 = icmp eq ptr %3, null
  br i1 %4, label %5, label %6

5:                                                ; preds = %1
  br label %9

6:                                                ; preds = %1
  %7 = load ptr, ptr %2, align 8, !tbaa !11
  call void @_ZN11check_logic3impD2Ev(ptr noundef nonnull align 8 dereferenceable(344) %7) #3
  %8 = load ptr, ptr %2, align 8, !tbaa !11
  call void @_ZN6memory10deallocateEPv(ptr noundef %8)
  br label %9

9:                                                ; preds = %6, %5
  ret void
}

; Function Attrs: mustprogress uwtable
define hidden void @_ZN11check_logic5resetEv(ptr noundef nonnull align 8 dereferenceable(8) %0) #5 align 2 {
  %2 = alloca ptr, align 8
  store ptr %0, ptr %2, align 8, !tbaa !3
  %3 = load ptr, ptr %2, align 8
  %4 = getelementptr inbounds nuw %class.check_logic, ptr %3, i32 0, i32 0
  %5 = load ptr, ptr %4, align 8, !tbaa !8
  %6 = icmp ne ptr %5, null
  br i1 %6, label %7, label %10

7:                                                ; preds = %1
  %8 = getelementptr inbounds nuw %class.check_logic, ptr %3, i32 0, i32 0
  %9 = load ptr, ptr %8, align 8, !tbaa !8
  call void @_Z7deallocIN11check_logic3impEEvPT_(ptr noundef %9)
  br label %10

10:                                               ; preds = %7, %1
  %11 = getelementptr inbounds nuw %class.check_logic, ptr %3, i32 0, i32 0
  store ptr null, ptr %11, align 8, !tbaa !8
  ret void
}

; Function Attrs: mustprogress uwtable
define hidden void @_ZN11check_logic9set_logicER11ast_managerRK6symbol(ptr noundef nonnull align 8 dereferenceable(8) %0, ptr noundef nonnull align 8 dereferenceable(976) %1, ptr noundef nonnull align 8 dereferenceable(8) %2) #5 align 2 {
  %4 = alloca ptr, align 8
  %5 = alloca ptr, align 8
  %6 = alloca ptr, align 8
  store ptr %0, ptr %4, align 8, !tbaa !3
  store ptr %1, ptr %5, align 8, !tbaa !12
  store ptr %2, ptr %6, align 8, !tbaa !14
  %7 = load ptr, ptr %4, align 8
  call void @_ZN11check_logic5resetEv(ptr noundef nonnull align 8 dereferenceable(8) %7)
  %8 = call noalias noundef ptr @_ZN6memory8allocateEm(i64 noundef 344)
  %9 = load ptr, ptr %5, align 8, !tbaa !12
  call void @_ZN11check_logic3impC2ER11ast_manager(ptr noundef nonnull align 8 dereferenceable(344) %8, ptr noundef nonnull align 8 dereferenceable(976) %9)
  %10 = getelementptr inbounds nuw %class.check_logic, ptr %7, i32 0, i32 0
  store ptr %8, ptr %10, align 8, !tbaa !8
  %11 = getelementptr inbounds nuw %class.check_logic, ptr %7, i32 0, i32 0
  %12 = load ptr, ptr %11, align 8, !tbaa !8
  %13 = load ptr, ptr %6, align 8, !tbaa !14
  call void @_ZN11check_logic3imp9set_logicERK6symbol(ptr noundef nonnull align 8 dereferenceable(344) %12, ptr noundef nonnull align 8 dereferenceable(8) %13)
  ret void
}