; Function Attrs: mustprogress uwtable
define hidden void @_ZN11check_logic9set_logicER11ast_managerRK6symbol(ptr noundef nonnull align 8 captures(none) dereferenceable(8) %0, ptr noundef nonnull align 8 dereferenceable(976) %1, ptr noundef nonnull align 8 dereferenceable(8) %2) local_unnamed_addr #7 align 2 {
  %4 = load ptr, ptr %0, align 8, !tbaa !3
  %.not.i = icmp eq ptr %4, null
  br i1 %.not.i, label %_ZN11check_logic5resetEv.exit, label %_Z7deallocIN11check_logic3impEEvPT_.exit.i

_Z7deallocIN11check_logic3impEEvPT_.exit.i:       ; preds = %3
  tail call void @_ZN11check_logic3impD2Ev(ptr noundef nonnull align 8 dereferenceable(344) %4) #24
  tail call void @_ZN6memory10deallocateEPv(ptr noundef nonnull %4)
  br label %_ZN11check_logic5resetEv.exit

_ZN11check_logic5resetEv.exit:                    ; preds = %3, %_Z7deallocIN11check_logic3impEEvPT_.exit.i
  store ptr null, ptr %0, align 8, !tbaa !3
  %5 = tail call noalias noundef ptr @_ZN6memory8allocateEm(i64 noundef 344)
  tail call void @_ZN11check_logic3impC2ER11ast_manager(ptr noundef nonnull align 8 dereferenceable(344) %5, ptr noundef nonnull align 8 dereferenceable(976) %1)
  store ptr %5, ptr %0, align 8, !tbaa !3
  tail call void @_ZN11check_logic3imp9set_logicERK6symbol(ptr noundef nonnull align 8 dereferenceable(344) %5, ptr noundef nonnull align 8 dereferenceable(8) %2)
  ret void
}